                                      1 ;--------------------------------------------------------
                                      2 ; File Created by SDCC : free open source ANSI-C Compiler
                                      3 ; Version 4.1.6 #12539 (Linux)
                                      4 ;--------------------------------------------------------
                                      5 	.module cardCursor
                                      6 	.optsdcc -mgbz80
                                      7 	
                                      8 ;--------------------------------------------------------
                                      9 ; Public variables in this module
                                     10 ;--------------------------------------------------------
                                     11 	.globl _cardCursor
                                     12 	.globl _cardCursorSelect
                                     13 	.globl _cardCursorB
                                     14 	.globl _cardCursorA
                                     15 	.globl _cardCursorRight
                                     16 	.globl _cardCursorLeft
                                     17 	.globl _cardCursorDown
                                     18 	.globl _cardCursorUp
                                     19 	.globl _logicScorecard
                                     20 	.globl _playView
                                     21 	.globl _waitpadup
                                     22 	.globl _joypad
                                     23 ;--------------------------------------------------------
                                     24 ; special function registers
                                     25 ;--------------------------------------------------------
                                     26 ;--------------------------------------------------------
                                     27 ; ram data
                                     28 ;--------------------------------------------------------
                                     29 	.area _DATA
                                     30 ;--------------------------------------------------------
                                     31 ; ram data
                                     32 ;--------------------------------------------------------
                                     33 	.area _INITIALIZED
                                     34 ;--------------------------------------------------------
                                     35 ; absolute external ram data
                                     36 ;--------------------------------------------------------
                                     37 	.area _DABS (ABS)
                                     38 ;--------------------------------------------------------
                                     39 ; global & static initialisations
                                     40 ;--------------------------------------------------------
                                     41 	.area _HOME
                                     42 	.area _GSINIT
                                     43 	.area _GSFINAL
                                     44 	.area _GSINIT
                                     45 ;--------------------------------------------------------
                                     46 ; Home
                                     47 ;--------------------------------------------------------
                                     48 	.area _HOME
                                     49 	.area _HOME
                                     50 ;--------------------------------------------------------
                                     51 ; code
                                     52 ;--------------------------------------------------------
                                     53 	.area _CODE
                                     54 ;func/cardCursor.c:13: void cardCursorUp(){
                                     55 ;	---------------------------------
                                     56 ; Function cardCursorUp
                                     57 ; ---------------------------------
      000000                         58 _cardCursorUp::
                                     59 ;func/cardCursor.c:14: if(cursorIndex > 8 && cursorIndex <= 15 || cursorIndex > 16 && cursorIndex <= 21){
      000000 21r00r00                60 	ld	hl, #_cursorIndex
      000003 3E 08                   61 	ld	a, #0x08
      000005 96                      62 	sub	a, (hl)
      000006 23                      63 	inc	hl
      000007 3E 00                   64 	ld	a, #0x00
      000009 9E                      65 	sbc	a, (hl)
      00000A 30 0C                   66 	jr	NC, 00109$
      00000C 21r00r00                67 	ld	hl, #_cursorIndex
      00000F 3E 0F                   68 	ld	a, #0x0f
      000011 96                      69 	sub	a, (hl)
      000012 23                      70 	inc	hl
      000013 3E 00                   71 	ld	a, #0x00
      000015 9E                      72 	sbc	a, (hl)
      000016 30 18                   73 	jr	NC, 00105$
      000018                         74 00109$:
      000018 21r00r00                75 	ld	hl, #_cursorIndex
      00001B 3E 10                   76 	ld	a, #0x10
      00001D 96                      77 	sub	a, (hl)
      00001E 23                      78 	inc	hl
      00001F 3E 00                   79 	ld	a, #0x00
      000021 9E                      80 	sbc	a, (hl)
      000022 30 58                   81 	jr	NC, 00106$
      000024 21r00r00                82 	ld	hl, #_cursorIndex
      000027 3E 15                   83 	ld	a, #0x15
      000029 96                      84 	sub	a, (hl)
      00002A 23                      85 	inc	hl
      00002B 3E 00                   86 	ld	a, #0x00
      00002D 9E                      87 	sbc	a, (hl)
      00002E 38 4C                   88 	jr	C, 00106$
      000030                         89 00105$:
                                     90 ;func/cardCursor.c:15: if(cursorIndex == 11 || cursorIndex == 19){
      000030 21r00r00                91 	ld	hl, #_cursorIndex
      000033 2A                      92 	ld	a, (hl+)
      000034 D6 0B                   93 	sub	a, #0x0b
      000036 B6                      94 	or	a, (hl)
      000037 28 09                   95 	jr	Z, 00101$
      000039 21r00r00                96 	ld	hl, #_cursorIndex
      00003C 2A                      97 	ld	a, (hl+)
      00003D D6 13                   98 	sub	a, #0x13
      00003F B6                      99 	or	a, (hl)
      000040 20 1B                  100 	jr	NZ, 00102$
      000042                        101 00101$:
                                    102 ;func/cardCursor.c:16: cursorPosition[1] -= 32;
      000042 21r02r00               103 	ld	hl, #(_cursorPosition + 2)
      000045 2A                     104 	ld	a, (hl+)
      000046 4F                     105 	ld	c, a
      000047 46                     106 	ld	b, (hl)
      000048 79                     107 	ld	a, c
      000049 C6 E0                  108 	add	a, #0xe0
      00004B 4F                     109 	ld	c, a
      00004C 78                     110 	ld	a, b
      00004D CE FF                  111 	adc	a, #0xff
      00004F 47                     112 	ld	b, a
      000050 21r02r00               113 	ld	hl, #(_cursorPosition + 2)
      000053 79                     114 	ld	a, c
      000054 22                     115 	ld	(hl+), a
      000055 70                     116 	ld	(hl), b
                                    117 ;func/cardCursor.c:17: upperRegion = 1;
      000056 21r00r00               118 	ld	hl, #_upperRegion
      000059 36 01                  119 	ld	(hl), #0x01
      00005B 18 14                  120 	jr	00103$
      00005D                        121 00102$:
                                    122 ;func/cardCursor.c:20: cursorPosition[1] -= 8;
      00005D 21r02r00               123 	ld	hl, #(_cursorPosition + 2)
      000060 2A                     124 	ld	a, (hl+)
      000061 4F                     125 	ld	c, a
      000062 46                     126 	ld	b, (hl)
      000063 79                     127 	ld	a, c
      000064 C6 F8                  128 	add	a, #0xf8
      000066 4F                     129 	ld	c, a
      000067 78                     130 	ld	a, b
      000068 CE FF                  131 	adc	a, #0xff
      00006A 47                     132 	ld	b, a
      00006B 21r02r00               133 	ld	hl, #(_cursorPosition + 2)
      00006E 79                     134 	ld	a, c
      00006F 22                     135 	ld	(hl+), a
      000070 70                     136 	ld	(hl), b
      000071                        137 00103$:
                                    138 ;func/cardCursor.c:22: cursorIndex -= 1;
      000071 21r00r00               139 	ld	hl, #_cursorIndex
      000074 2A                     140 	ld	a, (hl+)
      000075 5F                     141 	ld	e, a
      000076 3A                     142 	ld	a, (hl-)
      000077 57                     143 	ld	d, a
      000078 1B                     144 	dec	de
      000079 7B                     145 	ld	a, e
      00007A 22                     146 	ld	(hl+), a
      00007B 72                     147 	ld	(hl), d
      00007C                        148 00106$:
                                    149 ;func/cardCursor.c:24: move_sprite(cursor, cursorPosition[0], cursorPosition[1]);
      00007C 21r02r00               150 	ld	hl, #_cursorPosition + 2
      00007F 46                     151 	ld	b, (hl)
      000080 21r00r00               152 	ld	hl, #_cursorPosition
      000083 4E                     153 	ld	c, (hl)
      000084 21r00r00               154 	ld	hl, #_cursor
      000087 2A                     155 	ld	a, (hl+)
      000088 5F                     156 	ld	e, a
      000089 56                     157 	ld	d, (hl)
                                    158 ;/opt/gbdk/include/gb/gb.h:1399: OAM_item_t * itm = &shadow_OAM[nb];
      00008A 6B                     159 	ld	l, e
                                    160 ;	spillPairReg hl
                                    161 ;	spillPairReg hl
      00008B 26 00                  162 	ld	h, #0x00
                                    163 ;	spillPairReg hl
                                    164 ;	spillPairReg hl
      00008D 29                     165 	add	hl, hl
      00008E 29                     166 	add	hl, hl
      00008F 11r00r00               167 	ld	de, #_shadow_OAM
      000092 19                     168 	add	hl, de
                                    169 ;/opt/gbdk/include/gb/gb.h:1400: itm->y=y, itm->x=x;
      000093 78                     170 	ld	a, b
      000094 22                     171 	ld	(hl+), a
      000095 71                     172 	ld	(hl), c
                                    173 ;func/cardCursor.c:24: move_sprite(cursor, cursorPosition[0], cursorPosition[1]);
                                    174 ;func/cardCursor.c:25: }
      000096 C9                     175 	ret
                                    176 ;func/cardCursor.c:28: void cardCursorDown(){
                                    177 ;	---------------------------------
                                    178 ; Function cardCursorDown
                                    179 ; ---------------------------------
      000097                        180 _cardCursorDown::
                                    181 ;func/cardCursor.c:29: if(cursorIndex >= 8 && cursorIndex < 15 || cursorIndex >= 16 && cursorIndex <= 21){
      000097 21r00r00               182 	ld	hl, #_cursorIndex
      00009A 2A                     183 	ld	a, (hl+)
      00009B D6 08                  184 	sub	a, #0x08
      00009D 7E                     185 	ld	a, (hl)
      00009E DE 00                  186 	sbc	a, #0x00
      0000A0 38 09                  187 	jr	C, 00112$
      0000A2 2B                     188 	dec	hl
      0000A3 2A                     189 	ld	a, (hl+)
      0000A4 D6 0F                  190 	sub	a, #0x0f
      0000A6 7E                     191 	ld	a, (hl)
      0000A7 DE 00                  192 	sbc	a, #0x00
      0000A9 38 16                  193 	jr	C, 00108$
      0000AB                        194 00112$:
      0000AB 21r00r00               195 	ld	hl, #_cursorIndex
      0000AE 2A                     196 	ld	a, (hl+)
      0000AF D6 10                  197 	sub	a, #0x10
      0000B1 7E                     198 	ld	a, (hl)
      0000B2 DE 00                  199 	sbc	a, #0x00
      0000B4 DAr3Br01               200 	jp	C, 00109$
      0000B7 2B                     201 	dec	hl
      0000B8 3E 15                  202 	ld	a, #0x15
      0000BA 96                     203 	sub	a, (hl)
      0000BB 23                     204 	inc	hl
      0000BC 3E 00                  205 	ld	a, #0x00
      0000BE 9E                     206 	sbc	a, (hl)
      0000BF 38 7A                  207 	jr	C, 00109$
      0000C1                        208 00108$:
                                    209 ;func/cardCursor.c:30: if(cursorIndex == 10 || cursorIndex == 18){
      0000C1 21r00r00               210 	ld	hl, #_cursorIndex
      0000C4 2A                     211 	ld	a, (hl+)
      0000C5 D6 0A                  212 	sub	a, #0x0a
      0000C7 B6                     213 	or	a, (hl)
      0000C8 28 09                  214 	jr	Z, 00104$
      0000CA 21r00r00               215 	ld	hl, #_cursorIndex
      0000CD 2A                     216 	ld	a, (hl+)
      0000CE D6 12                  217 	sub	a, #0x12
      0000D0 B6                     218 	or	a, (hl)
      0000D1 20 21                  219 	jr	NZ, 00105$
      0000D3                        220 00104$:
                                    221 ;func/cardCursor.c:31: cursorPosition[1] += 32;
      0000D3 21r02r00               222 	ld	hl, #(_cursorPosition + 2)
      0000D6 2A                     223 	ld	a, (hl+)
      0000D7 4F                     224 	ld	c, a
      0000D8 46                     225 	ld	b, (hl)
      0000D9 21 20 00               226 	ld	hl, #0x0020
      0000DC 09                     227 	add	hl, bc
      0000DD 4D                     228 	ld	c, l
      0000DE 44                     229 	ld	b, h
      0000DF 21r02r00               230 	ld	hl, #(_cursorPosition + 2)
      0000E2 79                     231 	ld	a, c
      0000E3 22                     232 	ld	(hl+), a
      0000E4 70                     233 	ld	(hl), b
                                    234 ;func/cardCursor.c:32: cursorIndex += 1;
      0000E5 21r00r00               235 	ld	hl, #_cursorIndex
      0000E8 34                     236 	inc	(hl)
      0000E9 20 02                  237 	jr	NZ, 00139$
      0000EB 23                     238 	inc	hl
      0000EC 34                     239 	inc	(hl)
      0000ED                        240 00139$:
                                    241 ;func/cardCursor.c:33: upperRegion = 0;
      0000ED 21r00r00               242 	ld	hl, #_upperRegion
      0000F0 36 00                  243 	ld	(hl), #0x00
      0000F2 18 47                  244 	jr	00109$
      0000F4                        245 00105$:
                                    246 ;func/cardCursor.c:35: else if(cursorIndex == 21){
      0000F4 21r00r00               247 	ld	hl, #_cursorIndex
      0000F7 2A                     248 	ld	a, (hl+)
      0000F8 D6 15                  249 	sub	a, #0x15
      0000FA B6                     250 	or	a, (hl)
      0000FB 20 24                  251 	jr	NZ, 00102$
                                    252 ;func/cardCursor.c:36: cursorPosition[0] = 16;
      0000FD 21r00r00               253 	ld	hl, #_cursorPosition
      000100 3E 10                  254 	ld	a, #0x10
      000102 22                     255 	ld	(hl+), a
      000103 36 00                  256 	ld	(hl), #0x00
                                    257 ;func/cardCursor.c:37: cursorPosition[1] += 8;
      000105 21r02r00               258 	ld	hl, #(_cursorPosition + 2)
      000108 2A                     259 	ld	a, (hl+)
      000109 4F                     260 	ld	c, a
      00010A 46                     261 	ld	b, (hl)
      00010B 21 08 00               262 	ld	hl, #0x0008
      00010E 09                     263 	add	hl, bc
      00010F 4D                     264 	ld	c, l
      000110 44                     265 	ld	b, h
      000111 21r02r00               266 	ld	hl, #(_cursorPosition + 2)
      000114 79                     267 	ld	a, c
      000115 22                     268 	ld	(hl+), a
      000116 70                     269 	ld	(hl), b
                                    270 ;func/cardCursor.c:38: cursorIndex = 14;
      000117 21r00r00               271 	ld	hl, #_cursorIndex
      00011A 3E 0E                  272 	ld	a, #0x0e
      00011C 22                     273 	ld	(hl+), a
      00011D AF                     274 	xor	a, a
      00011E 77                     275 	ld	(hl), a
      00011F 18 1A                  276 	jr	00109$
      000121                        277 00102$:
                                    278 ;func/cardCursor.c:41: cursorPosition[1] += 8;
      000121 21r02r00               279 	ld	hl, #(_cursorPosition + 2)
      000124 2A                     280 	ld	a, (hl+)
      000125 4F                     281 	ld	c, a
      000126 46                     282 	ld	b, (hl)
      000127 21 08 00               283 	ld	hl, #0x0008
      00012A 09                     284 	add	hl, bc
      00012B 4D                     285 	ld	c, l
      00012C 44                     286 	ld	b, h
      00012D 21r02r00               287 	ld	hl, #(_cursorPosition + 2)
      000130 79                     288 	ld	a, c
      000131 22                     289 	ld	(hl+), a
      000132 70                     290 	ld	(hl), b
                                    291 ;func/cardCursor.c:42: cursorIndex += 1;
      000133 21r00r00               292 	ld	hl, #_cursorIndex
      000136 34                     293 	inc	(hl)
      000137 20 02                  294 	jr	NZ, 00142$
      000139 23                     295 	inc	hl
      00013A 34                     296 	inc	(hl)
      00013B                        297 00142$:
      00013B                        298 00109$:
                                    299 ;func/cardCursor.c:45: move_sprite(cursor, cursorPosition[0], cursorPosition[1]);
      00013B 21r02r00               300 	ld	hl, #_cursorPosition + 2
      00013E 46                     301 	ld	b, (hl)
      00013F 21r00r00               302 	ld	hl, #_cursorPosition
      000142 4E                     303 	ld	c, (hl)
      000143 21r00r00               304 	ld	hl, #_cursor
      000146 2A                     305 	ld	a, (hl+)
      000147 5F                     306 	ld	e, a
      000148 56                     307 	ld	d, (hl)
                                    308 ;/opt/gbdk/include/gb/gb.h:1399: OAM_item_t * itm = &shadow_OAM[nb];
      000149 6B                     309 	ld	l, e
                                    310 ;	spillPairReg hl
                                    311 ;	spillPairReg hl
      00014A 26 00                  312 	ld	h, #0x00
                                    313 ;	spillPairReg hl
                                    314 ;	spillPairReg hl
      00014C 29                     315 	add	hl, hl
      00014D 29                     316 	add	hl, hl
      00014E 11r00r00               317 	ld	de, #_shadow_OAM
      000151 19                     318 	add	hl, de
                                    319 ;/opt/gbdk/include/gb/gb.h:1400: itm->y=y, itm->x=x;
      000152 78                     320 	ld	a, b
      000153 22                     321 	ld	(hl+), a
      000154 71                     322 	ld	(hl), c
                                    323 ;func/cardCursor.c:45: move_sprite(cursor, cursorPosition[0], cursorPosition[1]);
                                    324 ;func/cardCursor.c:46: }
      000155 C9                     325 	ret
                                    326 ;func/cardCursor.c:49: void cardCursorLeft(){
                                    327 ;	---------------------------------
                                    328 ; Function cardCursorLeft
                                    329 ; ---------------------------------
      000156                        330 _cardCursorLeft::
                                    331 ;func/cardCursor.c:50: if(cursorIndex >= 16 && cursorIndex <= 21){
      000156 21r00r00               332 	ld	hl, #_cursorIndex
      000159 2A                     333 	ld	a, (hl+)
      00015A D6 10                  334 	sub	a, #0x10
      00015C 7E                     335 	ld	a, (hl)
      00015D DE 00                  336 	sbc	a, #0x00
      00015F 38 29                  337 	jr	C, 00102$
      000161 2B                     338 	dec	hl
      000162 3E 15                  339 	ld	a, #0x15
      000164 96                     340 	sub	a, (hl)
      000165 23                     341 	inc	hl
      000166 3E 00                  342 	ld	a, #0x00
      000168 9E                     343 	sbc	a, (hl)
      000169 38 1F                  344 	jr	C, 00102$
                                    345 ;func/cardCursor.c:51: cursorPosition[0] -= 72;
      00016B 21r00r00               346 	ld	hl, #_cursorPosition
      00016E 2A                     347 	ld	a, (hl+)
      00016F 4F                     348 	ld	c, a
      000170 46                     349 	ld	b, (hl)
      000171 79                     350 	ld	a, c
      000172 C6 B8                  351 	add	a, #0xb8
      000174 4F                     352 	ld	c, a
      000175 78                     353 	ld	a, b
      000176 CE FF                  354 	adc	a, #0xff
      000178 47                     355 	ld	b, a
      000179 21r00r00               356 	ld	hl, #_cursorPosition
      00017C 79                     357 	ld	a, c
      00017D 22                     358 	ld	(hl+), a
      00017E 70                     359 	ld	(hl), b
                                    360 ;func/cardCursor.c:52: cursorIndex -= 8;
      00017F 21r00r00               361 	ld	hl, #_cursorIndex
      000182 7E                     362 	ld	a, (hl)
      000183 C6 F8                  363 	add	a, #0xf8
      000185 22                     364 	ld	(hl+), a
      000186 7E                     365 	ld	a, (hl)
      000187 CE FF                  366 	adc	a, #0xff
      000189 77                     367 	ld	(hl), a
      00018A                        368 00102$:
                                    369 ;func/cardCursor.c:54: move_sprite(cursor, cursorPosition[0], cursorPosition[1]);
      00018A 21r02r00               370 	ld	hl, #_cursorPosition + 2
      00018D 46                     371 	ld	b, (hl)
      00018E 21r00r00               372 	ld	hl, #_cursorPosition
      000191 4E                     373 	ld	c, (hl)
      000192 21r00r00               374 	ld	hl, #_cursor
      000195 2A                     375 	ld	a, (hl+)
      000196 5F                     376 	ld	e, a
      000197 56                     377 	ld	d, (hl)
                                    378 ;/opt/gbdk/include/gb/gb.h:1399: OAM_item_t * itm = &shadow_OAM[nb];
      000198 6B                     379 	ld	l, e
                                    380 ;	spillPairReg hl
                                    381 ;	spillPairReg hl
      000199 26 00                  382 	ld	h, #0x00
                                    383 ;	spillPairReg hl
                                    384 ;	spillPairReg hl
      00019B 29                     385 	add	hl, hl
      00019C 29                     386 	add	hl, hl
      00019D 11r00r00               387 	ld	de, #_shadow_OAM
      0001A0 19                     388 	add	hl, de
                                    389 ;/opt/gbdk/include/gb/gb.h:1400: itm->y=y, itm->x=x;
      0001A1 78                     390 	ld	a, b
      0001A2 22                     391 	ld	(hl+), a
      0001A3 71                     392 	ld	(hl), c
                                    393 ;func/cardCursor.c:54: move_sprite(cursor, cursorPosition[0], cursorPosition[1]);
                                    394 ;func/cardCursor.c:55: }
      0001A4 C9                     395 	ret
                                    396 ;func/cardCursor.c:58: void cardCursorRight(){
                                    397 ;	---------------------------------
                                    398 ; Function cardCursorRight
                                    399 ; ---------------------------------
      0001A5                        400 _cardCursorRight::
                                    401 ;func/cardCursor.c:59: if(cursorIndex >= 8 && cursorIndex <= 13){
      0001A5 21r00r00               402 	ld	hl, #_cursorIndex
      0001A8 2A                     403 	ld	a, (hl+)
      0001A9 D6 08                  404 	sub	a, #0x08
      0001AB 7E                     405 	ld	a, (hl)
      0001AC DE 00                  406 	sbc	a, #0x00
      0001AE 38 27                  407 	jr	C, 00102$
      0001B0 2B                     408 	dec	hl
      0001B1 3E 0D                  409 	ld	a, #0x0d
      0001B3 96                     410 	sub	a, (hl)
      0001B4 23                     411 	inc	hl
      0001B5 3E 00                  412 	ld	a, #0x00
      0001B7 9E                     413 	sbc	a, (hl)
      0001B8 38 1D                  414 	jr	C, 00102$
                                    415 ;func/cardCursor.c:60: cursorPosition[0] += 72;
      0001BA 21r00r00               416 	ld	hl, #_cursorPosition
      0001BD 2A                     417 	ld	a, (hl+)
      0001BE 4F                     418 	ld	c, a
      0001BF 46                     419 	ld	b, (hl)
      0001C0 21 48 00               420 	ld	hl, #0x0048
      0001C3 09                     421 	add	hl, bc
      0001C4 4D                     422 	ld	c, l
      0001C5 44                     423 	ld	b, h
      0001C6 21r00r00               424 	ld	hl, #_cursorPosition
      0001C9 79                     425 	ld	a, c
      0001CA 22                     426 	ld	(hl+), a
      0001CB 70                     427 	ld	(hl), b
                                    428 ;func/cardCursor.c:61: cursorIndex += 8;
      0001CC 21r00r00               429 	ld	hl, #_cursorIndex
      0001CF 7E                     430 	ld	a, (hl)
      0001D0 C6 08                  431 	add	a, #0x08
      0001D2 22                     432 	ld	(hl+), a
      0001D3 7E                     433 	ld	a, (hl)
      0001D4 CE 00                  434 	adc	a, #0x00
      0001D6 77                     435 	ld	(hl), a
      0001D7                        436 00102$:
                                    437 ;func/cardCursor.c:63: move_sprite(cursor, cursorPosition[0], cursorPosition[1]);
      0001D7 21r02r00               438 	ld	hl, #_cursorPosition + 2
      0001DA 46                     439 	ld	b, (hl)
      0001DB 21r00r00               440 	ld	hl, #_cursorPosition
      0001DE 4E                     441 	ld	c, (hl)
      0001DF 21r00r00               442 	ld	hl, #_cursor
      0001E2 2A                     443 	ld	a, (hl+)
      0001E3 5F                     444 	ld	e, a
      0001E4 56                     445 	ld	d, (hl)
                                    446 ;/opt/gbdk/include/gb/gb.h:1399: OAM_item_t * itm = &shadow_OAM[nb];
      0001E5 6B                     447 	ld	l, e
                                    448 ;	spillPairReg hl
                                    449 ;	spillPairReg hl
      0001E6 26 00                  450 	ld	h, #0x00
                                    451 ;	spillPairReg hl
                                    452 ;	spillPairReg hl
      0001E8 29                     453 	add	hl, hl
      0001E9 29                     454 	add	hl, hl
      0001EA 11r00r00               455 	ld	de, #_shadow_OAM
      0001ED 19                     456 	add	hl, de
                                    457 ;/opt/gbdk/include/gb/gb.h:1400: itm->y=y, itm->x=x;
      0001EE 78                     458 	ld	a, b
      0001EF 22                     459 	ld	(hl+), a
      0001F0 71                     460 	ld	(hl), c
                                    461 ;func/cardCursor.c:63: move_sprite(cursor, cursorPosition[0], cursorPosition[1]);
                                    462 ;func/cardCursor.c:64: }
      0001F1 C9                     463 	ret
                                    464 ;func/cardCursor.c:66: void cardCursorA(){
                                    465 ;	---------------------------------
                                    466 ; Function cardCursorA
                                    467 ; ---------------------------------
      0001F2                        468 _cardCursorA::
                                    469 ;func/cardCursor.c:67: logicScorecard();
                                    470 ;func/cardCursor.c:68: }
      0001F2 C3r00r00               471 	jp	_logicScorecard
                                    472 ;func/cardCursor.c:70: void cardCursorB(){
                                    473 ;	---------------------------------
                                    474 ; Function cardCursorB
                                    475 ; ---------------------------------
      0001F5                        476 _cardCursorB::
                                    477 ;func/cardCursor.c:71: playView(backgroundMap);
      0001F5 11r00r00               478 	ld	de, #_backgroundMap
      0001F8 D5                     479 	push	de
      0001F9 CDr00r00               480 	call	_playView
      0001FC E1                     481 	pop	hl
                                    482 ;func/cardCursor.c:73: }
      0001FD C9                     483 	ret
                                    484 ;func/cardCursor.c:76: void cardCursorSelect(){
                                    485 ;	---------------------------------
                                    486 ; Function cardCursorSelect
                                    487 ; ---------------------------------
      0001FE                        488 _cardCursorSelect::
                                    489 ;func/cardCursor.c:77: quickSwitch = 1;
      0001FE 21r00r00               490 	ld	hl, #_quickSwitch
      000201 36 01                  491 	ld	(hl), #0x01
                                    492 ;func/cardCursor.c:78: playView(backgroundMap);
      000203 11r00r00               493 	ld	de, #_backgroundMap
      000206 D5                     494 	push	de
      000207 CDr00r00               495 	call	_playView
      00020A E1                     496 	pop	hl
                                    497 ;func/cardCursor.c:79: }
      00020B C9                     498 	ret
                                    499 ;func/cardCursor.c:82: void cardCursor(){
                                    500 ;	---------------------------------
                                    501 ; Function cardCursor
                                    502 ; ---------------------------------
      00020C                        503 _cardCursor::
                                    504 ;func/cardCursor.c:83: switch(joypad()){
      00020C CDr00r00               505 	call	_joypad
      00020F 7B                     506 	ld	a, e
      000210 FE 01                  507 	cp	a, #0x01
      000212 28 1F                  508 	jr	Z, 00102$
      000214 FE 02                  509 	cp	a, #0x02
      000216 28 15                  510 	jr	Z, 00101$
      000218 FE 04                  511 	cp	a, #0x04
      00021A 28 1D                  512 	jr	Z, 00103$
      00021C FE 08                  513 	cp	a, #0x08
      00021E 28 1F                  514 	jr	Z, 00104$
      000220 FE 10                  515 	cp	a, #0x10
      000222 28 21                  516 	jr	Z, 00105$
      000224 FE 20                  517 	cp	a, #0x20
      000226 28 23                  518 	jr	Z, 00106$
      000228 D6 40                  519 	sub	a, #0x40
      00022A 28 25                  520 	jr	Z, 00108$
      00022C C9                     521 	ret
                                    522 ;func/cardCursor.c:84: case J_LEFT:
      00022D                        523 00101$:
                                    524 ;func/cardCursor.c:85: cardCursorLeft();
      00022D CDr56r01               525 	call	_cardCursorLeft
                                    526 ;func/cardCursor.c:86: waitpadup();
                                    527 ;func/cardCursor.c:87: break;
      000230 C3r00r00               528 	jp	_waitpadup
                                    529 ;func/cardCursor.c:88: case J_RIGHT:
      000233                        530 00102$:
                                    531 ;func/cardCursor.c:89: cardCursorRight();
      000233 CDrA5r01               532 	call	_cardCursorRight
                                    533 ;func/cardCursor.c:90: waitpadup();
                                    534 ;func/cardCursor.c:91: break;
      000236 C3r00r00               535 	jp	_waitpadup
                                    536 ;func/cardCursor.c:92: case J_UP:
      000239                        537 00103$:
                                    538 ;func/cardCursor.c:93: cardCursorUp();
      000239 CDr00r00               539 	call	_cardCursorUp
                                    540 ;func/cardCursor.c:94: waitpadup();
                                    541 ;func/cardCursor.c:95: break;
      00023C C3r00r00               542 	jp	_waitpadup
                                    543 ;func/cardCursor.c:96: case J_DOWN:
      00023F                        544 00104$:
                                    545 ;func/cardCursor.c:97: cardCursorDown();
      00023F CDr97r00               546 	call	_cardCursorDown
                                    547 ;func/cardCursor.c:98: waitpadup();
                                    548 ;func/cardCursor.c:99: break;
      000242 C3r00r00               549 	jp	_waitpadup
                                    550 ;func/cardCursor.c:100: case J_A:
      000245                        551 00105$:
                                    552 ;func/cardCursor.c:101: cardCursorA();
      000245 CDrF2r01               553 	call	_cardCursorA
                                    554 ;func/cardCursor.c:102: waitpadup();
                                    555 ;func/cardCursor.c:103: break;
      000248 C3r00r00               556 	jp	_waitpadup
                                    557 ;func/cardCursor.c:104: case J_B:
      00024B                        558 00106$:
                                    559 ;func/cardCursor.c:105: cardCursorB();
      00024B CDrF5r01               560 	call	_cardCursorB
                                    561 ;func/cardCursor.c:106: waitpadup();
                                    562 ;func/cardCursor.c:107: break;
      00024E C3r00r00               563 	jp	_waitpadup
                                    564 ;func/cardCursor.c:110: case J_SELECT:
      000251                        565 00108$:
                                    566 ;func/cardCursor.c:111: cardCursorSelect();
      000251 CDrFEr01               567 	call	_cardCursorSelect
                                    568 ;func/cardCursor.c:112: waitpadup();
                                    569 ;func/cardCursor.c:114: }
                                    570 ;func/cardCursor.c:115: }
      000254 C3r00r00               571 	jp	_waitpadup
                                    572 	.area _CODE
                                    573 	.area _INITIALIZER
                                    574 	.area _CABS (ABS)
