                                      1 ;--------------------------------------------------------
                                      2 ; File Created by SDCC : free open source ANSI-C Compiler
                                      3 ; Version 4.1.6 #12539 (Linux)
                                      4 ;--------------------------------------------------------
                                      5 	.module rollDi
                                      6 	.optsdcc -mgbz80
                                      7 	
                                      8 ;--------------------------------------------------------
                                      9 ; Public variables in this module
                                     10 ;--------------------------------------------------------
                                     11 	.globl _rollDi
                                     12 	.globl _myRandom
                                     13 ;--------------------------------------------------------
                                     14 ; special function registers
                                     15 ;--------------------------------------------------------
                                     16 ;--------------------------------------------------------
                                     17 ; ram data
                                     18 ;--------------------------------------------------------
                                     19 	.area _DATA
                                     20 ;--------------------------------------------------------
                                     21 ; ram data
                                     22 ;--------------------------------------------------------
                                     23 	.area _INITIALIZED
                                     24 ;--------------------------------------------------------
                                     25 ; absolute external ram data
                                     26 ;--------------------------------------------------------
                                     27 	.area _DABS (ABS)
                                     28 ;--------------------------------------------------------
                                     29 ; global & static initialisations
                                     30 ;--------------------------------------------------------
                                     31 	.area _HOME
                                     32 	.area _GSINIT
                                     33 	.area _GSFINAL
                                     34 	.area _GSINIT
                                     35 ;--------------------------------------------------------
                                     36 ; Home
                                     37 ;--------------------------------------------------------
                                     38 	.area _HOME
                                     39 	.area _HOME
                                     40 ;--------------------------------------------------------
                                     41 ; code
                                     42 ;--------------------------------------------------------
                                     43 	.area _CODE
                                     44 ;func/rollDi.c:10: void rollDi(){
                                     45 ;	---------------------------------
                                     46 ; Function rollDi
                                     47 ; ---------------------------------
      000000                         48 _rollDi::
      000000 E8 FC                   49 	add	sp, #-4
                                     50 ;func/rollDi.c:12: switch(myRandom(5)){
      000002 3E 05                   51 	ld	a, #0x05
      000004 F5                      52 	push	af
      000005 33                      53 	inc	sp
      000006 CDr00r00                54 	call	_myRandom
      000009 33                      55 	inc	sp
      00000A 3E 05                   56 	ld	a, #0x05
      00000C 93                      57 	sub	a, e
      00000D DAr90r01                58 	jp	C, 00126$
      000010 16 00                   59 	ld	d, #0x00
      000012 21r19r00                60 	ld	hl, #00194$
      000015 19                      61 	add	hl, de
      000016 19                      62 	add	hl, de
      000017 19                      63 	add	hl, de
      000018 E9                      64 	jp	(hl)
      000019                         65 00194$:
      000019 C3r2Br00                66 	jp	00129$
      00001C C3r68r00                67 	jp	00131$
      00001F C3rA4r00                68 	jp	00133$
      000022 C3rE0r00                69 	jp	00135$
      000025 C3r1Br01                70 	jp	00137$
      000028 C3r56r01                71 	jp	00139$
                                     72 ;func/rollDi.c:14: for(r = 0; r < 4; r++){
      00002B                         73 00129$:
      00002B AF                      74 	xor	a, a
      00002C F8 02                   75 	ldhl	sp,	#2
      00002E 22                      76 	ld	(hl+), a
      00002F 77                      77 	ld	(hl), a
      000030                         78 00114$:
                                     79 ;func/rollDi.c:15: currentFace[r] = diFace1[r];
      000030 F8 02                   80 	ldhl	sp,#2
      000032 2A                      81 	ld	a, (hl+)
      000033 4F                      82 	ld	c, a
      000034 46                      83 	ld	b, (hl)
      000035 CB 21                   84 	sla	c
      000037 CB 10                   85 	rl	b
      000039 21r00r00                86 	ld	hl, #_currentFace
      00003C 09                      87 	add	hl, bc
      00003D 33                      88 	inc	sp
      00003E 33                      89 	inc	sp
      00003F E5                      90 	push	hl
      000040 21r00r00                91 	ld	hl, #_diFace1
      000043 09                      92 	add	hl, bc
      000044 2A                      93 	ld	a, (hl+)
      000045 4F                      94 	ld	c, a
      000046 46                      95 	ld	b, (hl)
      000047 E1                      96 	pop	hl
      000048 E5                      97 	push	hl
      000049 79                      98 	ld	a, c
      00004A 22                      99 	ld	(hl+), a
      00004B 70                     100 	ld	(hl), b
                                    101 ;func/rollDi.c:16: diFaceBuf = 1;
      00004C 21r00r00               102 	ld	hl, #_diFaceBuf
      00004F 3E 01                  103 	ld	a, #0x01
      000051 22                     104 	ld	(hl+), a
      000052 AF                     105 	xor	a, a
      000053 77                     106 	ld	(hl), a
                                    107 ;func/rollDi.c:14: for(r = 0; r < 4; r++){
      000054 F8 02                  108 	ldhl	sp,	#2
      000056 34                     109 	inc	(hl)
      000057 20 02                  110 	jr	NZ, 00196$
      000059 23                     111 	inc	hl
      00005A 34                     112 	inc	(hl)
      00005B                        113 00196$:
      00005B F8 02                  114 	ldhl	sp,	#2
      00005D 2A                     115 	ld	a, (hl+)
      00005E D6 04                  116 	sub	a, #0x04
      000060 7E                     117 	ld	a, (hl)
      000061 DE 00                  118 	sbc	a, #0x00
      000063 38 CB                  119 	jr	C, 00114$
                                    120 ;func/rollDi.c:18: break;
      000065 C3r90r01               121 	jp	00126$
                                    122 ;func/rollDi.c:20: for(r = 0; r < 4; r++){
      000068                        123 00131$:
      000068 01 00 00               124 	ld	bc, #0x0000
      00006B                        125 00116$:
                                    126 ;func/rollDi.c:21: currentFace[r] = diFace2[r];
      00006B 59                     127 	ld	e, c
      00006C 50                     128 	ld	d, b
      00006D CB 23                  129 	sla	e
      00006F CB 12                  130 	rl	d
      000071 D5                     131 	push	de
      000072 21r00r00               132 	ld	hl, #_currentFace
      000075 19                     133 	add	hl, de
      000076 D1                     134 	pop	de
      000077 33                     135 	inc	sp
      000078 33                     136 	inc	sp
      000079 E5                     137 	push	hl
      00007A 21r00r00               138 	ld	hl, #_diFace2
      00007D 19                     139 	add	hl, de
      00007E 5D                     140 	ld	e, l
      00007F 54                     141 	ld	d, h
      000080 1A                     142 	ld	a, (de)
      000081 F8 02                  143 	ldhl	sp,	#2
      000083 22                     144 	ld	(hl+), a
      000084 13                     145 	inc	de
      000085 1A                     146 	ld	a, (de)
      000086 77                     147 	ld	(hl), a
      000087 D1                     148 	pop	de
      000088 D5                     149 	push	de
      000089 F8 02                  150 	ldhl	sp,	#2
      00008B 2A                     151 	ld	a, (hl+)
      00008C 12                     152 	ld	(de), a
      00008D 13                     153 	inc	de
      00008E 7E                     154 	ld	a, (hl)
      00008F 12                     155 	ld	(de), a
                                    156 ;func/rollDi.c:22: diFaceBuf = 2;
      000090 21r00r00               157 	ld	hl, #_diFaceBuf
      000093 3E 02                  158 	ld	a, #0x02
      000095 22                     159 	ld	(hl+), a
      000096 AF                     160 	xor	a, a
      000097 77                     161 	ld	(hl), a
                                    162 ;func/rollDi.c:20: for(r = 0; r < 4; r++){
      000098 03                     163 	inc	bc
      000099 79                     164 	ld	a, c
      00009A D6 04                  165 	sub	a, #0x04
      00009C 78                     166 	ld	a, b
      00009D DE 00                  167 	sbc	a, #0x00
      00009F 38 CA                  168 	jr	C, 00116$
                                    169 ;func/rollDi.c:24: break;
      0000A1 C3r90r01               170 	jp	00126$
                                    171 ;func/rollDi.c:26: for(r = 0; r < 4; r++){
      0000A4                        172 00133$:
      0000A4 01 00 00               173 	ld	bc, #0x0000
      0000A7                        174 00118$:
                                    175 ;func/rollDi.c:27: currentFace[r] = diFace3[r];
      0000A7 59                     176 	ld	e, c
      0000A8 50                     177 	ld	d, b
      0000A9 CB 23                  178 	sla	e
      0000AB CB 12                  179 	rl	d
      0000AD D5                     180 	push	de
      0000AE 21r00r00               181 	ld	hl, #_currentFace
      0000B1 19                     182 	add	hl, de
      0000B2 D1                     183 	pop	de
      0000B3 33                     184 	inc	sp
      0000B4 33                     185 	inc	sp
      0000B5 E5                     186 	push	hl
      0000B6 21r00r00               187 	ld	hl, #_diFace3
      0000B9 19                     188 	add	hl, de
      0000BA 5D                     189 	ld	e, l
      0000BB 54                     190 	ld	d, h
      0000BC 1A                     191 	ld	a, (de)
      0000BD F8 02                  192 	ldhl	sp,	#2
      0000BF 22                     193 	ld	(hl+), a
      0000C0 13                     194 	inc	de
      0000C1 1A                     195 	ld	a, (de)
      0000C2 77                     196 	ld	(hl), a
      0000C3 D1                     197 	pop	de
      0000C4 D5                     198 	push	de
      0000C5 F8 02                  199 	ldhl	sp,	#2
      0000C7 2A                     200 	ld	a, (hl+)
      0000C8 12                     201 	ld	(de), a
      0000C9 13                     202 	inc	de
      0000CA 7E                     203 	ld	a, (hl)
      0000CB 12                     204 	ld	(de), a
                                    205 ;func/rollDi.c:28: diFaceBuf = 3;
      0000CC 21r00r00               206 	ld	hl, #_diFaceBuf
      0000CF 3E 03                  207 	ld	a, #0x03
      0000D1 22                     208 	ld	(hl+), a
      0000D2 AF                     209 	xor	a, a
      0000D3 77                     210 	ld	(hl), a
                                    211 ;func/rollDi.c:26: for(r = 0; r < 4; r++){
      0000D4 03                     212 	inc	bc
      0000D5 79                     213 	ld	a, c
      0000D6 D6 04                  214 	sub	a, #0x04
      0000D8 78                     215 	ld	a, b
      0000D9 DE 00                  216 	sbc	a, #0x00
      0000DB 38 CA                  217 	jr	C, 00118$
                                    218 ;func/rollDi.c:30: break;
      0000DD C3r90r01               219 	jp	00126$
                                    220 ;func/rollDi.c:32: for(r = 0; r < 4; r++){
      0000E0                        221 00135$:
      0000E0 01 00 00               222 	ld	bc, #0x0000
      0000E3                        223 00120$:
                                    224 ;func/rollDi.c:33: currentFace[r] = diFace4[r];
      0000E3 59                     225 	ld	e, c
      0000E4 50                     226 	ld	d, b
      0000E5 CB 23                  227 	sla	e
      0000E7 CB 12                  228 	rl	d
      0000E9 D5                     229 	push	de
      0000EA 21r00r00               230 	ld	hl, #_currentFace
      0000ED 19                     231 	add	hl, de
      0000EE D1                     232 	pop	de
      0000EF 33                     233 	inc	sp
      0000F0 33                     234 	inc	sp
      0000F1 E5                     235 	push	hl
      0000F2 21r00r00               236 	ld	hl, #_diFace4
      0000F5 19                     237 	add	hl, de
      0000F6 5D                     238 	ld	e, l
      0000F7 54                     239 	ld	d, h
      0000F8 1A                     240 	ld	a, (de)
      0000F9 F8 02                  241 	ldhl	sp,	#2
      0000FB 22                     242 	ld	(hl+), a
      0000FC 13                     243 	inc	de
      0000FD 1A                     244 	ld	a, (de)
      0000FE 77                     245 	ld	(hl), a
      0000FF D1                     246 	pop	de
      000100 D5                     247 	push	de
      000101 F8 02                  248 	ldhl	sp,	#2
      000103 2A                     249 	ld	a, (hl+)
      000104 12                     250 	ld	(de), a
      000105 13                     251 	inc	de
      000106 7E                     252 	ld	a, (hl)
      000107 12                     253 	ld	(de), a
                                    254 ;func/rollDi.c:34: diFaceBuf = 4;
      000108 21r00r00               255 	ld	hl, #_diFaceBuf
      00010B 3E 04                  256 	ld	a, #0x04
      00010D 22                     257 	ld	(hl+), a
      00010E AF                     258 	xor	a, a
      00010F 77                     259 	ld	(hl), a
                                    260 ;func/rollDi.c:32: for(r = 0; r < 4; r++){
      000110 03                     261 	inc	bc
      000111 79                     262 	ld	a, c
      000112 D6 04                  263 	sub	a, #0x04
      000114 78                     264 	ld	a, b
      000115 DE 00                  265 	sbc	a, #0x00
      000117 38 CA                  266 	jr	C, 00120$
                                    267 ;func/rollDi.c:36: break;
      000119 18 75                  268 	jr	00126$
                                    269 ;func/rollDi.c:38: for(r = 0; r < 4; r++){
      00011B                        270 00137$:
      00011B 01 00 00               271 	ld	bc, #0x0000
      00011E                        272 00122$:
                                    273 ;func/rollDi.c:39: currentFace[r] = diFace5[r];
      00011E 59                     274 	ld	e, c
      00011F 50                     275 	ld	d, b
      000120 CB 23                  276 	sla	e
      000122 CB 12                  277 	rl	d
      000124 D5                     278 	push	de
      000125 21r00r00               279 	ld	hl, #_currentFace
      000128 19                     280 	add	hl, de
      000129 D1                     281 	pop	de
      00012A 33                     282 	inc	sp
      00012B 33                     283 	inc	sp
      00012C E5                     284 	push	hl
      00012D 21r00r00               285 	ld	hl, #_diFace5
      000130 19                     286 	add	hl, de
      000131 5D                     287 	ld	e, l
      000132 54                     288 	ld	d, h
      000133 1A                     289 	ld	a, (de)
      000134 F8 02                  290 	ldhl	sp,	#2
      000136 22                     291 	ld	(hl+), a
      000137 13                     292 	inc	de
      000138 1A                     293 	ld	a, (de)
      000139 77                     294 	ld	(hl), a
      00013A D1                     295 	pop	de
      00013B D5                     296 	push	de
      00013C F8 02                  297 	ldhl	sp,	#2
      00013E 2A                     298 	ld	a, (hl+)
      00013F 12                     299 	ld	(de), a
      000140 13                     300 	inc	de
      000141 7E                     301 	ld	a, (hl)
      000142 12                     302 	ld	(de), a
                                    303 ;func/rollDi.c:40: diFaceBuf = 5;
      000143 21r00r00               304 	ld	hl, #_diFaceBuf
      000146 3E 05                  305 	ld	a, #0x05
      000148 22                     306 	ld	(hl+), a
      000149 AF                     307 	xor	a, a
      00014A 77                     308 	ld	(hl), a
                                    309 ;func/rollDi.c:38: for(r = 0; r < 4; r++){
      00014B 03                     310 	inc	bc
      00014C 79                     311 	ld	a, c
      00014D D6 04                  312 	sub	a, #0x04
      00014F 78                     313 	ld	a, b
      000150 DE 00                  314 	sbc	a, #0x00
      000152 38 CA                  315 	jr	C, 00122$
                                    316 ;func/rollDi.c:42: break;
      000154 18 3A                  317 	jr	00126$
                                    318 ;func/rollDi.c:44: for(r = 0; r < 4; r++){
      000156                        319 00139$:
      000156 AF                     320 	xor	a, a
      000157 F8 02                  321 	ldhl	sp,	#2
      000159 22                     322 	ld	(hl+), a
      00015A 77                     323 	ld	(hl), a
      00015B                        324 00124$:
                                    325 ;func/rollDi.c:45: currentFace[r] = diFace6[r];
      00015B F8 02                  326 	ldhl	sp,#2
      00015D 2A                     327 	ld	a, (hl+)
      00015E 4F                     328 	ld	c, a
      00015F 46                     329 	ld	b, (hl)
      000160 CB 21                  330 	sla	c
      000162 CB 10                  331 	rl	b
      000164 21r00r00               332 	ld	hl, #_currentFace
      000167 09                     333 	add	hl, bc
      000168 33                     334 	inc	sp
      000169 33                     335 	inc	sp
      00016A E5                     336 	push	hl
      00016B 21r00r00               337 	ld	hl, #_diFace6
      00016E 09                     338 	add	hl, bc
      00016F 2A                     339 	ld	a, (hl+)
      000170 4F                     340 	ld	c, a
      000171 46                     341 	ld	b, (hl)
      000172 E1                     342 	pop	hl
      000173 E5                     343 	push	hl
      000174 79                     344 	ld	a, c
      000175 22                     345 	ld	(hl+), a
      000176 70                     346 	ld	(hl), b
                                    347 ;func/rollDi.c:46: diFaceBuf = 6;
      000177 21r00r00               348 	ld	hl, #_diFaceBuf
      00017A 3E 06                  349 	ld	a, #0x06
      00017C 22                     350 	ld	(hl+), a
      00017D AF                     351 	xor	a, a
      00017E 77                     352 	ld	(hl), a
                                    353 ;func/rollDi.c:44: for(r = 0; r < 4; r++){
      00017F F8 02                  354 	ldhl	sp,	#2
      000181 34                     355 	inc	(hl)
      000182 20 02                  356 	jr	NZ, 00202$
      000184 23                     357 	inc	hl
      000185 34                     358 	inc	(hl)
      000186                        359 00202$:
      000186 F8 02                  360 	ldhl	sp,	#2
      000188 2A                     361 	ld	a, (hl+)
      000189 D6 04                  362 	sub	a, #0x04
      00018B 7E                     363 	ld	a, (hl)
      00018C DE 00                  364 	sbc	a, #0x00
      00018E 38 CB                  365 	jr	C, 00124$
                                    366 ;func/rollDi.c:49: }
      000190                        367 00126$:
                                    368 ;func/rollDi.c:50: }
      000190 E8 04                  369 	add	sp, #4
      000192 C9                     370 	ret
                                    371 	.area _CODE
                                    372 	.area _INITIALIZER
                                    373 	.area _CABS (ABS)
