                                      1 ;--------------------------------------------------------
                                      2 ; File Created by SDCC : free open source ANSI-C Compiler
                                      3 ; Version 4.1.6 #12539 (Linux)
                                      4 ;--------------------------------------------------------
                                      5 	.module titleScreen
                                      6 	.optsdcc -mgbz80
                                      7 	
                                      8 ;--------------------------------------------------------
                                      9 ; Public variables in this module
                                     10 ;--------------------------------------------------------
                                     11 	.globl _titleScreen
                                     12 	.globl _set_sprite_data
                                     13 	.globl _set_bkg_tiles
                                     14 	.globl _set_bkg_data
                                     15 	.globl _waitpadup
                                     16 	.globl _joypad
                                     17 ;--------------------------------------------------------
                                     18 ; special function registers
                                     19 ;--------------------------------------------------------
                                     20 ;--------------------------------------------------------
                                     21 ; ram data
                                     22 ;--------------------------------------------------------
                                     23 	.area _DATA
                                     24 ;--------------------------------------------------------
                                     25 ; ram data
                                     26 ;--------------------------------------------------------
                                     27 	.area _INITIALIZED
                                     28 ;--------------------------------------------------------
                                     29 ; absolute external ram data
                                     30 ;--------------------------------------------------------
                                     31 	.area _DABS (ABS)
                                     32 ;--------------------------------------------------------
                                     33 ; global & static initialisations
                                     34 ;--------------------------------------------------------
                                     35 	.area _HOME
                                     36 	.area _GSINIT
                                     37 	.area _GSFINAL
                                     38 	.area _GSINIT
                                     39 ;--------------------------------------------------------
                                     40 ; Home
                                     41 ;--------------------------------------------------------
                                     42 	.area _HOME
                                     43 	.area _HOME
                                     44 ;--------------------------------------------------------
                                     45 ; code
                                     46 ;--------------------------------------------------------
                                     47 	.area _CODE
                                     48 ;func/titleScreen.c:12: void titleScreen(){
                                     49 ;	---------------------------------
                                     50 ; Function titleScreen
                                     51 ; ---------------------------------
      000000                         52 _titleScreen::
      000000 3B                      53 	dec	sp
      000001 3B                      54 	dec	sp
                                     55 ;func/titleScreen.c:13: HIDE_BKG;
      000002 F0r00                   56 	ldh	a, (_LCDC_REG + 0)
      000004 E6 FE                   57 	and	a, #0xfe
      000006 E0r00                   58 	ldh	(_LCDC_REG + 0), a
                                     59 ;func/titleScreen.c:14: HIDE_SPRITES;
      000008 F0r00                   60 	ldh	a, (_LCDC_REG + 0)
      00000A E6 FD                   61 	and	a, #0xfd
      00000C E0r00                   62 	ldh	(_LCDC_REG + 0), a
                                     63 ;func/titleScreen.c:15: set_bkg_data(0, 93, splashScreen_data);
      00000E 11r00r00                64 	ld	de, #_splashScreen_data
      000011 D5                      65 	push	de
      000012 21 00 5D                66 	ld	hl, #0x5d00
      000015 E5                      67 	push	hl
      000016 CDr00r00                68 	call	_set_bkg_data
      000019 E8 04                   69 	add	sp, #4
                                     70 ;func/titleScreen.c:16: set_bkg_tiles(0, 0, 20, 18, splashScreen_map);
      00001B 11r00r00                71 	ld	de, #_splashScreen_map
      00001E D5                      72 	push	de
      00001F 21 14 12                73 	ld	hl, #0x1214
      000022 E5                      74 	push	hl
      000023 AF                      75 	xor	a, a
      000024 0F                      76 	rrca
      000025 F5                      77 	push	af
      000026 CDr00r00                78 	call	_set_bkg_tiles
      000029 E8 06                   79 	add	sp, #6
                                     80 ;func/titleScreen.c:19: set_sprite_data(0, 7, Sprites);
      00002B 11r00r00                81 	ld	de, #_Sprites
      00002E D5                      82 	push	de
      00002F 21 00 07                83 	ld	hl, #0x700
      000032 E5                      84 	push	hl
      000033 CDr00r00                85 	call	_set_sprite_data
      000036 E8 04                   86 	add	sp, #4
                                     87 ;/opt/gbdk/include/gb/gb.h:1326: shadow_OAM[nb].tile=tile;
      000038 21r52r00                88 	ld	hl, #(_shadow_OAM + 82)
      00003B 36 05                   89 	ld	(hl), #0x05
      00003D 21r56r00                90 	ld	hl, #(_shadow_OAM + 86)
      000040 36 06                   91 	ld	(hl), #0x06
                                     92 ;func/titleScreen.c:23: titlePosL[0] = 64;
      000042 21r00r00                93 	ld	hl, #_titlePosL
      000045 3E 40                   94 	ld	a, #0x40
      000047 22                      95 	ld	(hl+), a
      000048 36 00                   96 	ld	(hl), #0x00
                                     97 ;func/titleScreen.c:24: titlePosL[1] = 96;
      00004A 21r02r00                98 	ld	hl, #(_titlePosL + 2)
      00004D 3E 60                   99 	ld	a, #0x60
      00004F 22                     100 	ld	(hl+), a
      000050 36 00                  101 	ld	(hl), #0x00
                                    102 ;func/titleScreen.c:25: titlePosR[0] = 104;
      000052 21r00r00               103 	ld	hl, #_titlePosR
      000055 3E 68                  104 	ld	a, #0x68
      000057 22                     105 	ld	(hl+), a
      000058 36 00                  106 	ld	(hl), #0x00
                                    107 ;func/titleScreen.c:26: titlePosR[1] = titlePosL[1];
      00005A 21r02r00               108 	ld	hl, #(_titlePosL + 2)
      00005D 2A                     109 	ld	a, (hl+)
      00005E 47                     110 	ld	b, a
      00005F 4E                     111 	ld	c, (hl)
      000060 21r02r00               112 	ld	hl, #(_titlePosR + 2)
      000063 78                     113 	ld	a, b
      000064 22                     114 	ld	(hl+), a
      000065 71                     115 	ld	(hl), c
                                    116 ;func/titleScreen.c:28: move_sprite(20, titlePosL[0], titlePosL[1]);
      000066 FAr02r00               117 	ld	a, (#(_titlePosL + 2) + 0)
      000069 F8 00                  118 	ldhl	sp,	#0
      00006B 77                     119 	ld	(hl), a
      00006C FAr00r00               120 	ld	a, (#_titlePosL + 0)
      00006F F8 01                  121 	ldhl	sp,	#1
      000071 77                     122 	ld	(hl), a
                                    123 ;/opt/gbdk/include/gb/gb.h:1399: OAM_item_t * itm = &shadow_OAM[nb];
      000072 11r50r00               124 	ld	de, #_shadow_OAM+80
                                    125 ;/opt/gbdk/include/gb/gb.h:1400: itm->y=y, itm->x=x;
      000075 F8 00                  126 	ldhl	sp,	#0
      000077 2A                     127 	ld	a, (hl+)
      000078 12                     128 	ld	(de), a
      000079 13                     129 	inc	de
      00007A 7E                     130 	ld	a, (hl)
      00007B 12                     131 	ld	(de), a
                                    132 ;func/titleScreen.c:29: move_sprite(21, titlePosR[0], titlePosR[1]);
      00007C 21r00r00               133 	ld	hl, #_titlePosR
      00007F 4E                     134 	ld	c, (hl)
                                    135 ;/opt/gbdk/include/gb/gb.h:1399: OAM_item_t * itm = &shadow_OAM[nb];
      000080 21r54r00               136 	ld	hl, #(_shadow_OAM + 84)
                                    137 ;/opt/gbdk/include/gb/gb.h:1400: itm->y=y, itm->x=x;
      000083 78                     138 	ld	a, b
      000084 22                     139 	ld	(hl+), a
      000085 71                     140 	ld	(hl), c
                                    141 ;func/titleScreen.c:31: SHOW_BKG;
      000086 F0r00                  142 	ldh	a, (_LCDC_REG + 0)
      000088 F6 01                  143 	or	a, #0x01
      00008A E0r00                  144 	ldh	(_LCDC_REG + 0), a
                                    145 ;func/titleScreen.c:32: SHOW_SPRITES;
      00008C F0r00                  146 	ldh	a, (_LCDC_REG + 0)
      00008E F6 02                  147 	or	a, #0x02
      000090 E0r00                  148 	ldh	(_LCDC_REG + 0), a
                                    149 ;func/titleScreen.c:34: while(gameStart == 0){
      000092                        150 00123$:
      000092 FAr00r00               151 	ld	a, (#_gameStart)
      000095 B7                     152 	or	a, a
      000096 C2rA4r02               153 	jp	NZ, 00135$
                                    154 ;func/titleScreen.c:35: switch(joypad()){
      000099 CDr00r00               155 	call	_joypad
      00009C F8 01                  156 	ldhl	sp,	#1
      00009E 73                     157 	ld	(hl), e
                                    158 ;func/titleScreen.c:44: else if(titleIndex == 1){
      00009F 21r00r00               159 	ld	hl, #_titleIndex
      0000A2 2A                     160 	ld	a, (hl+)
      0000A3 3D                     161 	dec	a
      0000A4 B6                     162 	or	a, (hl)
      0000A5 3E 01                  163 	ld	a, #0x01
      0000A7 28 01                  164 	jr	Z, 00198$
      0000A9 AF                     165 	xor	a, a
      0000AA                        166 00198$:
      0000AA 4F                     167 	ld	c, a
                                    168 ;func/titleScreen.c:51: else if(titleIndex == 2){
      0000AB 21r00r00               169 	ld	hl, #_titleIndex
      0000AE 2A                     170 	ld	a, (hl+)
      0000AF D6 02                  171 	sub	a, #0x02
      0000B1 B6                     172 	or	a, (hl)
      0000B2 3E 01                  173 	ld	a, #0x01
      0000B4 28 01                  174 	jr	Z, 00200$
      0000B6 AF                     175 	xor	a, a
      0000B7                        176 00200$:
      0000B7 5F                     177 	ld	e, a
                                    178 ;func/titleScreen.c:35: switch(joypad()){
      0000B8 F8 01                  179 	ldhl	sp,	#1
      0000BA 7E                     180 	ld	a, (hl)
      0000BB D6 04                  181 	sub	a, #0x04
      0000BD CArA2r01               182 	jp	Z,00110$
      0000C0 F8 01                  183 	ldhl	sp,	#1
      0000C2 7E                     184 	ld	a, (hl)
      0000C3 D6 08                  185 	sub	a, #0x08
      0000C5 28 0A                  186 	jr	Z, 00101$
      0000C7 F8 01                  187 	ldhl	sp,	#1
      0000C9 7E                     188 	ld	a, (hl)
      0000CA D6 10                  189 	sub	a, #0x10
      0000CC CAr84r02               190 	jp	Z,00119$
      0000CF 18 C1                  191 	jr	00123$
                                    192 ;func/titleScreen.c:36: case J_DOWN:
      0000D1                        193 00101$:
                                    194 ;func/titleScreen.c:37: if(titleIndex == 0){
      0000D1 21r01r00               195 	ld	hl, #_titleIndex + 1
      0000D4 3A                     196 	ld	a, (hl-)
      0000D5 B6                     197 	or	a, (hl)
      0000D6 20 32                  198 	jr	NZ, 00108$
                                    199 ;func/titleScreen.c:38: titlePosL[0] = 40;
      0000D8 21r00r00               200 	ld	hl, #_titlePosL
      0000DB 3E 28                  201 	ld	a, #0x28
      0000DD 22                     202 	ld	(hl+), a
      0000DE 36 00                  203 	ld	(hl), #0x00
                                    204 ;func/titleScreen.c:39: titlePosL[1] += 8;
      0000E0 21r02r00               205 	ld	hl, #(_titlePosL + 2)
      0000E3 2A                     206 	ld	a, (hl+)
      0000E4 4F                     207 	ld	c, a
      0000E5 46                     208 	ld	b, (hl)
      0000E6 21 08 00               209 	ld	hl, #0x0008
      0000E9 09                     210 	add	hl, bc
      0000EA 4D                     211 	ld	c, l
      0000EB 44                     212 	ld	b, h
      0000EC 21r02r00               213 	ld	hl, #(_titlePosL + 2)
      0000EF 79                     214 	ld	a, c
      0000F0 22                     215 	ld	(hl+), a
      0000F1 70                     216 	ld	(hl), b
                                    217 ;func/titleScreen.c:40: titlePosR[0] = 136;
      0000F2 21r00r00               218 	ld	hl, #_titlePosR
      0000F5 3E 88                  219 	ld	a, #0x88
      0000F7 22                     220 	ld	(hl+), a
      0000F8 36 00                  221 	ld	(hl), #0x00
                                    222 ;func/titleScreen.c:41: titlePosR[1] = titlePosL[1];
      0000FA 21r02r00               223 	ld	hl, #(_titlePosR + 2)
      0000FD 79                     224 	ld	a, c
      0000FE 22                     225 	ld	(hl+), a
      0000FF 70                     226 	ld	(hl), b
                                    227 ;func/titleScreen.c:42: titleIndex++;
      000100 21r00r00               228 	ld	hl, #_titleIndex
      000103 34                     229 	inc	(hl)
      000104 20 6E                  230 	jr	NZ, 00109$
      000106 23                     231 	inc	hl
      000107 34                     232 	inc	(hl)
      000108 18 6A                  233 	jr	00109$
      00010A                        234 00108$:
                                    235 ;func/titleScreen.c:44: else if(titleIndex == 1){
      00010A 79                     236 	ld	a, c
      00010B B7                     237 	or	a, a
      00010C 28 32                  238 	jr	Z, 00105$
                                    239 ;func/titleScreen.c:45: titlePosL[0] = 48;
      00010E 21r00r00               240 	ld	hl, #_titlePosL
      000111 3E 30                  241 	ld	a, #0x30
      000113 22                     242 	ld	(hl+), a
      000114 36 00                  243 	ld	(hl), #0x00
                                    244 ;func/titleScreen.c:46: titlePosL[1] += 8;
      000116 21r02r00               245 	ld	hl, #(_titlePosL + 2)
      000119 2A                     246 	ld	a, (hl+)
      00011A 4F                     247 	ld	c, a
      00011B 46                     248 	ld	b, (hl)
      00011C 21 08 00               249 	ld	hl, #0x0008
      00011F 09                     250 	add	hl, bc
      000120 4D                     251 	ld	c, l
      000121 44                     252 	ld	b, h
      000122 21r02r00               253 	ld	hl, #(_titlePosL + 2)
      000125 79                     254 	ld	a, c
      000126 22                     255 	ld	(hl+), a
      000127 70                     256 	ld	(hl), b
                                    257 ;func/titleScreen.c:47: titlePosR[0] = 120;
      000128 21r00r00               258 	ld	hl, #_titlePosR
      00012B 3E 78                  259 	ld	a, #0x78
      00012D 22                     260 	ld	(hl+), a
      00012E 36 00                  261 	ld	(hl), #0x00
                                    262 ;func/titleScreen.c:48: titlePosR[1] = titlePosL[1];
      000130 21r02r00               263 	ld	hl, #(_titlePosR + 2)
      000133 79                     264 	ld	a, c
      000134 22                     265 	ld	(hl+), a
      000135 70                     266 	ld	(hl), b
                                    267 ;func/titleScreen.c:49: titleIndex++;
      000136 21r00r00               268 	ld	hl, #_titleIndex
      000139 34                     269 	inc	(hl)
      00013A 20 38                  270 	jr	NZ, 00109$
      00013C 23                     271 	inc	hl
      00013D 34                     272 	inc	(hl)
      00013E 18 34                  273 	jr	00109$
      000140                        274 00105$:
                                    275 ;func/titleScreen.c:51: else if(titleIndex == 2){
      000140 7B                     276 	ld	a, e
      000141 B7                     277 	or	a, a
      000142 28 30                  278 	jr	Z, 00109$
                                    279 ;func/titleScreen.c:52: titlePosL[0] = 56;
      000144 21r00r00               280 	ld	hl, #_titlePosL
      000147 3E 38                  281 	ld	a, #0x38
      000149 22                     282 	ld	(hl+), a
      00014A 36 00                  283 	ld	(hl), #0x00
                                    284 ;func/titleScreen.c:53: titlePosL[1] += 8;
      00014C 21r02r00               285 	ld	hl, #(_titlePosL + 2)
      00014F 2A                     286 	ld	a, (hl+)
      000150 4F                     287 	ld	c, a
      000151 46                     288 	ld	b, (hl)
      000152 21 08 00               289 	ld	hl, #0x0008
      000155 09                     290 	add	hl, bc
      000156 4D                     291 	ld	c, l
      000157 44                     292 	ld	b, h
      000158 21r02r00               293 	ld	hl, #(_titlePosL + 2)
      00015B 79                     294 	ld	a, c
      00015C 22                     295 	ld	(hl+), a
      00015D 70                     296 	ld	(hl), b
                                    297 ;func/titleScreen.c:54: titlePosR[0] = 120;
      00015E 21r00r00               298 	ld	hl, #_titlePosR
      000161 3E 78                  299 	ld	a, #0x78
      000163 22                     300 	ld	(hl+), a
      000164 36 00                  301 	ld	(hl), #0x00
                                    302 ;func/titleScreen.c:55: titlePosR[1] = titlePosL[1];
      000166 21r02r00               303 	ld	hl, #(_titlePosR + 2)
      000169 79                     304 	ld	a, c
      00016A 22                     305 	ld	(hl+), a
      00016B 70                     306 	ld	(hl), b
                                    307 ;func/titleScreen.c:56: titleIndex++;
      00016C 21r00r00               308 	ld	hl, #_titleIndex
      00016F 34                     309 	inc	(hl)
      000170 20 02                  310 	jr	NZ, 00206$
      000172 23                     311 	inc	hl
      000173 34                     312 	inc	(hl)
      000174                        313 00206$:
      000174                        314 00109$:
                                    315 ;func/titleScreen.c:58: move_sprite(20, titlePosL[0], titlePosL[1]);
      000174 FAr02r00               316 	ld	a, (#(_titlePosL + 2) + 0)
      000177 F8 01                  317 	ldhl	sp,	#1
      000179 77                     318 	ld	(hl), a
      00017A 21r00r00               319 	ld	hl, #_titlePosL
      00017D 4E                     320 	ld	c, (hl)
                                    321 ;/opt/gbdk/include/gb/gb.h:1399: OAM_item_t * itm = &shadow_OAM[nb];
      00017E 11r50r00               322 	ld	de, #(_shadow_OAM + 80)
                                    323 ;/opt/gbdk/include/gb/gb.h:1400: itm->y=y, itm->x=x;
      000181 F8 01                  324 	ldhl	sp,	#1
      000183 7E                     325 	ld	a, (hl)
      000184 12                     326 	ld	(de), a
      000185 13                     327 	inc	de
      000186 79                     328 	ld	a, c
      000187 12                     329 	ld	(de), a
                                    330 ;func/titleScreen.c:59: move_sprite(21, titlePosR[0], titlePosR[1]);
      000188 FAr02r00               331 	ld	a, (#(_titlePosR + 2) + 0)
      00018B F8 01                  332 	ldhl	sp,	#1
      00018D 77                     333 	ld	(hl), a
      00018E 21r00r00               334 	ld	hl, #_titlePosR
      000191 4E                     335 	ld	c, (hl)
                                    336 ;/opt/gbdk/include/gb/gb.h:1399: OAM_item_t * itm = &shadow_OAM[nb];
      000192 11r54r00               337 	ld	de, #(_shadow_OAM + 84)
                                    338 ;/opt/gbdk/include/gb/gb.h:1400: itm->y=y, itm->x=x;
      000195 F8 01                  339 	ldhl	sp,	#1
      000197 7E                     340 	ld	a, (hl)
      000198 12                     341 	ld	(de), a
      000199 13                     342 	inc	de
      00019A 79                     343 	ld	a, c
      00019B 12                     344 	ld	(de), a
                                    345 ;func/titleScreen.c:60: waitpadup();
      00019C CDr00r00               346 	call	_waitpadup
                                    347 ;func/titleScreen.c:61: break;
      00019F C3r92r00               348 	jp	00123$
                                    349 ;func/titleScreen.c:62: case J_UP:
      0001A2                        350 00110$:
                                    351 ;func/titleScreen.c:63: if(titleIndex == 1){
      0001A2 79                     352 	ld	a, c
      0001A3 B7                     353 	or	a, a
      0001A4 28 37                  354 	jr	Z, 00117$
                                    355 ;func/titleScreen.c:64: titlePosL[0] = 64;
      0001A6 21r00r00               356 	ld	hl, #_titlePosL
      0001A9 3E 40                  357 	ld	a, #0x40
      0001AB 22                     358 	ld	(hl+), a
      0001AC 36 00                  359 	ld	(hl), #0x00
                                    360 ;func/titleScreen.c:65: titlePosL[1] -= 8;
      0001AE 21r02r00               361 	ld	hl, #(_titlePosL + 2)
      0001B1 2A                     362 	ld	a, (hl+)
      0001B2 4F                     363 	ld	c, a
      0001B3 46                     364 	ld	b, (hl)
      0001B4 79                     365 	ld	a, c
      0001B5 C6 F8                  366 	add	a, #0xf8
      0001B7 4F                     367 	ld	c, a
      0001B8 78                     368 	ld	a, b
      0001B9 CE FF                  369 	adc	a, #0xff
      0001BB 47                     370 	ld	b, a
      0001BC 21r02r00               371 	ld	hl, #(_titlePosL + 2)
      0001BF 79                     372 	ld	a, c
      0001C0 22                     373 	ld	(hl+), a
      0001C1 70                     374 	ld	(hl), b
                                    375 ;func/titleScreen.c:66: titlePosR[0] = 104;
      0001C2 21r00r00               376 	ld	hl, #_titlePosR
      0001C5 3E 68                  377 	ld	a, #0x68
      0001C7 22                     378 	ld	(hl+), a
      0001C8 36 00                  379 	ld	(hl), #0x00
                                    380 ;func/titleScreen.c:67: titlePosR[1] = titlePosL[1];
      0001CA 21r02r00               381 	ld	hl, #(_titlePosR + 2)
      0001CD 79                     382 	ld	a, c
      0001CE 22                     383 	ld	(hl+), a
      0001CF 70                     384 	ld	(hl), b
                                    385 ;func/titleScreen.c:68: titleIndex--;
      0001D0 21r00r00               386 	ld	hl, #_titleIndex
      0001D3 2A                     387 	ld	a, (hl+)
      0001D4 5F                     388 	ld	e, a
      0001D5 3A                     389 	ld	a, (hl-)
      0001D6 57                     390 	ld	d, a
      0001D7 1B                     391 	dec	de
      0001D8 7B                     392 	ld	a, e
      0001D9 22                     393 	ld	(hl+), a
      0001DA 72                     394 	ld	(hl), d
      0001DB 18 79                  395 	jr	00118$
      0001DD                        396 00117$:
                                    397 ;func/titleScreen.c:70: else if(titleIndex == 2){
      0001DD 7B                     398 	ld	a, e
      0001DE B7                     399 	or	a, a
      0001DF 28 37                  400 	jr	Z, 00114$
                                    401 ;func/titleScreen.c:71: titlePosL[0] = 40;
      0001E1 21r00r00               402 	ld	hl, #_titlePosL
      0001E4 3E 28                  403 	ld	a, #0x28
      0001E6 22                     404 	ld	(hl+), a
      0001E7 36 00                  405 	ld	(hl), #0x00
                                    406 ;func/titleScreen.c:72: titlePosL[1] -= 8;
      0001E9 21r02r00               407 	ld	hl, #(_titlePosL + 2)
      0001EC 2A                     408 	ld	a, (hl+)
      0001ED 4F                     409 	ld	c, a
      0001EE 46                     410 	ld	b, (hl)
      0001EF 79                     411 	ld	a, c
      0001F0 C6 F8                  412 	add	a, #0xf8
      0001F2 4F                     413 	ld	c, a
      0001F3 78                     414 	ld	a, b
      0001F4 CE FF                  415 	adc	a, #0xff
      0001F6 47                     416 	ld	b, a
      0001F7 21r02r00               417 	ld	hl, #(_titlePosL + 2)
      0001FA 79                     418 	ld	a, c
      0001FB 22                     419 	ld	(hl+), a
      0001FC 70                     420 	ld	(hl), b
                                    421 ;func/titleScreen.c:73: titlePosR[0] = 136;
      0001FD 21r00r00               422 	ld	hl, #_titlePosR
      000200 3E 88                  423 	ld	a, #0x88
      000202 22                     424 	ld	(hl+), a
      000203 36 00                  425 	ld	(hl), #0x00
                                    426 ;func/titleScreen.c:74: titlePosR[1] = titlePosL[1];
      000205 21r02r00               427 	ld	hl, #(_titlePosR + 2)
      000208 79                     428 	ld	a, c
      000209 22                     429 	ld	(hl+), a
      00020A 70                     430 	ld	(hl), b
                                    431 ;func/titleScreen.c:75: titleIndex--;
      00020B 21r00r00               432 	ld	hl, #_titleIndex
      00020E 2A                     433 	ld	a, (hl+)
      00020F 5F                     434 	ld	e, a
      000210 3A                     435 	ld	a, (hl-)
      000211 57                     436 	ld	d, a
      000212 1B                     437 	dec	de
      000213 7B                     438 	ld	a, e
      000214 22                     439 	ld	(hl+), a
      000215 72                     440 	ld	(hl), d
      000216 18 3E                  441 	jr	00118$
      000218                        442 00114$:
                                    443 ;func/titleScreen.c:77: else if(titleIndex == 3){
      000218 21r00r00               444 	ld	hl, #_titleIndex
      00021B 2A                     445 	ld	a, (hl+)
      00021C D6 03                  446 	sub	a, #0x03
      00021E B6                     447 	or	a, (hl)
      00021F 20 35                  448 	jr	NZ, 00118$
                                    449 ;func/titleScreen.c:78: titlePosL[0] = 48;
      000221 21r00r00               450 	ld	hl, #_titlePosL
      000224 3E 30                  451 	ld	a, #0x30
      000226 22                     452 	ld	(hl+), a
      000227 36 00                  453 	ld	(hl), #0x00
                                    454 ;func/titleScreen.c:79: titlePosL[1] -= 8;
      000229 21r02r00               455 	ld	hl, #(_titlePosL + 2)
      00022C 2A                     456 	ld	a, (hl+)
      00022D 4F                     457 	ld	c, a
      00022E 46                     458 	ld	b, (hl)
      00022F 79                     459 	ld	a, c
      000230 C6 F8                  460 	add	a, #0xf8
      000232 4F                     461 	ld	c, a
      000233 78                     462 	ld	a, b
      000234 CE FF                  463 	adc	a, #0xff
      000236 47                     464 	ld	b, a
      000237 21r02r00               465 	ld	hl, #(_titlePosL + 2)
      00023A 79                     466 	ld	a, c
      00023B 22                     467 	ld	(hl+), a
      00023C 70                     468 	ld	(hl), b
                                    469 ;func/titleScreen.c:80: titlePosR[0] = 120;
      00023D 21r00r00               470 	ld	hl, #_titlePosR
      000240 3E 78                  471 	ld	a, #0x78
      000242 22                     472 	ld	(hl+), a
      000243 36 00                  473 	ld	(hl), #0x00
                                    474 ;func/titleScreen.c:81: titlePosR[1] = titlePosL[1];
      000245 21r02r00               475 	ld	hl, #(_titlePosR + 2)
      000248 79                     476 	ld	a, c
      000249 22                     477 	ld	(hl+), a
      00024A 70                     478 	ld	(hl), b
                                    479 ;func/titleScreen.c:82: titleIndex--;
      00024B 21r00r00               480 	ld	hl, #_titleIndex
      00024E 2A                     481 	ld	a, (hl+)
      00024F 5F                     482 	ld	e, a
      000250 3A                     483 	ld	a, (hl-)
      000251 57                     484 	ld	d, a
      000252 1B                     485 	dec	de
      000253 7B                     486 	ld	a, e
      000254 22                     487 	ld	(hl+), a
      000255 72                     488 	ld	(hl), d
      000256                        489 00118$:
                                    490 ;func/titleScreen.c:84: move_sprite(20, titlePosL[0], titlePosL[1]);
      000256 FAr02r00               491 	ld	a, (#(_titlePosL + 2) + 0)
      000259 F8 01                  492 	ldhl	sp,	#1
      00025B 77                     493 	ld	(hl), a
      00025C 21r00r00               494 	ld	hl, #_titlePosL
      00025F 4E                     495 	ld	c, (hl)
                                    496 ;/opt/gbdk/include/gb/gb.h:1399: OAM_item_t * itm = &shadow_OAM[nb];
      000260 11r50r00               497 	ld	de, #_shadow_OAM+80
                                    498 ;/opt/gbdk/include/gb/gb.h:1400: itm->y=y, itm->x=x;
      000263 F8 01                  499 	ldhl	sp,	#1
      000265 7E                     500 	ld	a, (hl)
      000266 12                     501 	ld	(de), a
      000267 13                     502 	inc	de
      000268 79                     503 	ld	a, c
      000269 12                     504 	ld	(de), a
                                    505 ;func/titleScreen.c:85: move_sprite(21, titlePosR[0], titlePosR[1]);
      00026A FAr02r00               506 	ld	a, (#(_titlePosR + 2) + 0)
      00026D F8 01                  507 	ldhl	sp,	#1
      00026F 77                     508 	ld	(hl), a
      000270 21r00r00               509 	ld	hl, #_titlePosR
      000273 4E                     510 	ld	c, (hl)
                                    511 ;/opt/gbdk/include/gb/gb.h:1399: OAM_item_t * itm = &shadow_OAM[nb];
      000274 11r54r00               512 	ld	de, #_shadow_OAM+84
                                    513 ;/opt/gbdk/include/gb/gb.h:1400: itm->y=y, itm->x=x;
      000277 F8 01                  514 	ldhl	sp,	#1
      000279 7E                     515 	ld	a, (hl)
      00027A 12                     516 	ld	(de), a
      00027B 13                     517 	inc	de
      00027C 79                     518 	ld	a, c
      00027D 12                     519 	ld	(de), a
                                    520 ;func/titleScreen.c:86: waitpadup();
      00027E CDr00r00               521 	call	_waitpadup
                                    522 ;func/titleScreen.c:87: break;
      000281 C3r92r00               523 	jp	00123$
                                    524 ;func/titleScreen.c:88: case J_A:
      000284                        525 00119$:
                                    526 ;func/titleScreen.c:89: if(titleIndex == 0){
      000284 21r01r00               527 	ld	hl, #_titleIndex + 1
      000287 3A                     528 	ld	a, (hl-)
      000288 B6                     529 	or	a, (hl)
      000289 20 13                  530 	jr	NZ, 00121$
                                    531 ;func/titleScreen.c:90: gameStart = 1;
      00028B 21r00r00               532 	ld	hl, #_gameStart
      00028E 36 01                  533 	ld	(hl), #0x01
                                    534 ;func/titleScreen.c:91: HIDE_SPRITES;
      000290 F0r00                  535 	ldh	a, (_LCDC_REG + 0)
      000292 E6 FD                  536 	and	a, #0xfd
      000294 E0r00                  537 	ldh	(_LCDC_REG + 0), a
                                    538 ;/opt/gbdk/include/gb/gb.h:1399: OAM_item_t * itm = &shadow_OAM[nb];
      000296 01r54r00               539 	ld	bc, #_shadow_OAM+84
                                    540 ;/opt/gbdk/include/gb/gb.h:1400: itm->y=y, itm->x=x;
      000299 AF                     541 	xor	a, a
      00029A 02                     542 	ld	(bc), a
      00029B 03                     543 	inc	bc
      00029C AF                     544 	xor	a, a
      00029D 02                     545 	ld	(bc), a
                                    546 ;func/titleScreen.c:92: move_sprite(21, 0, 0);
      00029E                        547 00121$:
                                    548 ;func/titleScreen.c:94: waitpadup();
      00029E CDr00r00               549 	call	_waitpadup
                                    550 ;func/titleScreen.c:96: }
      0002A1 C3r92r00               551 	jp	00123$
      0002A4                        552 00135$:
                                    553 ;func/titleScreen.c:98: }
      0002A4 33                     554 	inc	sp
      0002A5 33                     555 	inc	sp
      0002A6 C9                     556 	ret
                                    557 	.area _CODE
                                    558 	.area _INITIALIZER
                                    559 	.area _CABS (ABS)
